; Function Attrs: nounwind uwtable
define void @Abc_NtkDress2(ptr noundef %0, ptr noundef %1, i32 noundef %2, i32 noundef %3) local_unnamed_addr #1 {
  %5 = alloca %struct.timespec, align 8
  %6 = alloca %struct.timespec, align 8
  call void @llvm.lifetime.start.p0(i64 16, ptr nonnull %6)
  %7 = call i32 @clock_gettime(i32 noundef 1, ptr noundef nonnull %6) #20
  %8 = icmp slt i32 %7, 0
  br i1 %8, label %Abc_Clock.exit, label %9

9:                                                ; preds = %4
  %10 = load i64, ptr %6, align 8
  %.neg15 = mul i64 %10, -1000000
  %11 = getelementptr inbounds nuw i8, ptr %6, i64 8
  %12 = load i64, ptr %11, align 8
  %.neg = sdiv i64 %12, -1000
  %.neg16 = add i64 %.neg, %.neg15
  br label %Abc_Clock.exit

Abc_Clock.exit:                                   ; preds = %4, %9
  %.0.i.neg = phi i64 [ %.neg16, %9 ], [ 1, %4 ]
  call void @llvm.lifetime.end.p0(i64 16, ptr nonnull %6)
  %13 = call ptr @Abc_NtkDressComputeEquivs(ptr noundef %0, ptr noundef %1, i32 noundef %2, i32 noundef %3)
  %14 = getelementptr i8, ptr %0, i64 124
  %.val = load i32, ptr %14, align 4
  call void @llvm.lifetime.start.p0(i64 16, ptr nonnull %5)
  %15 = call i32 @clock_gettime(i32 noundef 1, ptr noundef nonnull %5) #20
  %16 = icmp slt i32 %15, 0
  br i1 %16, label %Abc_Clock.exit14, label %17

17:                                               ; preds = %Abc_Clock.exit
  %18 = load i64, ptr %5, align 8
  %19 = mul nsw i64 %18, 1000000
  %20 = getelementptr inbounds nuw i8, ptr %5, i64 8
  %21 = load i64, ptr %20, align 8
  %22 = sdiv i64 %21, 1000
  %23 = add nsw i64 %22, %19
  br label %Abc_Clock.exit14

Abc_Clock.exit14:                                 ; preds = %Abc_Clock.exit, %17
  %.0.i13 = phi i64 [ %23, %17 ], [ -1, %Abc_Clock.exit ]
  call void @llvm.lifetime.end.p0(i64 16, ptr nonnull %5)
  %24 = add i64 %.0.i13, %.0.i.neg
  call void @Abc_NtkDressPrintStats(ptr noundef %13, i32 noundef %.val, i32 noundef %.val, i64 noundef %24)
  call void @Abc_NtkDress2Transfer(ptr noundef nonnull %0, ptr noundef %1, ptr noundef %13, i32 noundef %3)
  %25 = getelementptr i8, ptr %13, i64 4
  %.val11.i = load i32, ptr %25, align 4
  %26 = icmp sgt i32 %.val11.i, 0
  %27 = getelementptr i8, ptr %13, i64 8
  %.val8.i = load ptr, ptr %27, align 8
  br i1 %26, label %.lr.ph.i, label %.critedge.i

.lr.ph.i:                                         ; preds = %Abc_Clock.exit14
  %28 = zext nneg i32 %.val11.i to i64
  br label %29

29:                                               ; preds = %36, %.lr.ph.i
  %indvars.iv.i = phi i64 [ 0, %.lr.ph.i ], [ %indvars.iv.next.i, %36 ]
  %30 = getelementptr inbounds nuw ptr, ptr %.val8.i, i64 %indvars.iv.i
  %31 = load ptr, ptr %30, align 8
  %.not.i = icmp eq ptr %31, null
  br i1 %.not.i, label %36, label %32

32:                                               ; preds = %29
  %33 = getelementptr inbounds nuw i8, ptr %31, i64 8
  %34 = load ptr, ptr %33, align 8
  %.not.i.i = icmp eq ptr %34, null
  br i1 %.not.i.i, label %Vec_PtrFree.exit.i, label %35

35:                                               ; preds = %32
  call void @free(ptr noundef nonnull %34) #20
  br label %Vec_PtrFree.exit.i

Vec_PtrFree.exit.i:                               ; preds = %35, %32
  call void @free(ptr noundef nonnull %31) #20
  br label %36

36:                                               ; preds = %Vec_PtrFree.exit.i, %29
  %indvars.iv.next.i = add nuw nsw i64 %indvars.iv.i, 1
  %exitcond.not = icmp eq i64 %indvars.iv.next.i, %28
  br i1 %exitcond.not, label %.critedge.i.thread, label %29, !llvm.loop !26

.critedge.i:                                      ; preds = %Abc_Clock.exit14
  %.not.i9.i = icmp eq ptr %.val8.i, null
  br i1 %.not.i9.i, label %Vec_VecFree.exit, label %.critedge.i.thread

.critedge.i.thread:                               ; preds = %36, %.critedge.i
  call void @free(ptr noundef nonnull %.val8.i) #20
  br label %Vec_VecFree.exit

Vec_VecFree.exit:                                 ; preds = %.critedge.i, %.critedge.i.thread
  call void @free(ptr noundef nonnull %13) #20
  ret void
}